target datalayout = "e-m:e-p270:32:32-p271:32:32-p272:64:64-i64:64-i128:128-f80:128-n8:16:32:64-S128"
target triple = "x86_64-unknown-linux-gnu"

%struct.HashMap = type { ptr, i32, i32 }
%struct.Token = type { i32, ptr, i64, x86_fp80, ptr, i32, ptr, ptr, ptr, ptr, i32, i32, i8, i8, ptr, ptr }
%struct.File = type { ptr, i32, ptr, ptr, i32 }

@macros = internal global %struct.HashMap zeroinitializer, align 8
@.str.63 = private unnamed_addr constant [4 x i8] c"%d\0A\00", align 1
@.str.71 = private unnamed_addr constant [33 x i8] c"macro name must be an identifier\00", align 1
@.str.86 = private unnamed_addr constant [2 x i8] c"(\00", align 1
@.str.88 = private unnamed_addr constant [2 x i8] c")\00", align 1
@.str.107 = private unnamed_addr constant [12 x i8] c"extra token\00", align 1
@.str.108 = private unnamed_addr constant [14 x i8] c"no expression\00", align 1
@.str.109 = private unnamed_addr constant [8 x i8] c"defined\00", align 1

; Function Attrs: nounwind uwtable
define internal ptr @new_eof(ptr noundef %tok) #0 {
entry:
  %tok.addr = alloca ptr, align 8
  %t = alloca ptr, align 8
  store ptr %tok, ptr %tok.addr, align 8
  %0 = load ptr, ptr %tok.addr, align 8
  %call = call ptr @copy_token(ptr noundef %0)
  store ptr %call, ptr %t, align 8
  %1 = load ptr, ptr %t, align 8
  %kind = getelementptr inbounds %struct.Token, ptr %1, i32 0, i32 0
  store i32 6, ptr %kind, align 16
  %2 = load ptr, ptr %t, align 8
  %len = getelementptr inbounds %struct.Token, ptr %2, i32 0, i32 5
  store i32 0, ptr %len, align 8
  %3 = load ptr, ptr %t, align 8
  ret ptr %3
}

; Function Attrs: nounwind uwtable
define internal ptr @copy_token(ptr noundef %tok) #0 {
entry:
  %tok.addr = alloca ptr, align 8
  %t = alloca ptr, align 8
  store ptr %tok, ptr %tok.addr, align 8
  %call = call noalias ptr @calloc(i64 noundef 1, i64 noundef 128) #9
  store ptr %call, ptr %t, align 8
  %0 = load ptr, ptr %t, align 8
  %1 = load ptr, ptr %tok.addr, align 8
  call void @llvm.memcpy.p0.p0.i64(ptr align 16 %0, ptr align 16 %1, i64 128, i1 false)
  %2 = load ptr, ptr %t, align 8
  %next = getelementptr inbounds %struct.Token, ptr %2, i32 0, i32 1
  store ptr null, ptr %next, align 8
  %3 = load ptr, ptr %t, align 8
  ret ptr %3
}

; Function Attrs: nounwind uwtable
define internal ptr @find_macro(ptr noundef %tok) #0 {
entry:
  %retval = alloca ptr, align 8
  %tok.addr = alloca ptr, align 8
  store ptr %tok, ptr %tok.addr, align 8
  %0 = load ptr, ptr %tok.addr, align 8
  %kind = getelementptr inbounds %struct.Token, ptr %0, i32 0, i32 0
  %1 = load i32, ptr %kind, align 16
  %cmp = icmp ne i32 %1, 0
  br i1 %cmp, label %if.then, label %if.end

if.then:                                          ; preds = %entry
  store ptr null, ptr %retval, align 8
  br label %return

if.end:                                           ; preds = %entry
  %2 = load ptr, ptr %tok.addr, align 8
  %loc = getelementptr inbounds %struct.Token, ptr %2, i32 0, i32 4
  %3 = load ptr, ptr %loc, align 16
  %4 = load ptr, ptr %tok.addr, align 8
  %len = getelementptr inbounds %struct.Token, ptr %4, i32 0, i32 5
  %5 = load i32, ptr %len, align 8
  %call = call ptr @hashmap_get2(ptr noundef @macros, ptr noundef %3, i32 noundef %5)
  store ptr %call, ptr %retval, align 8
  br label %return

return:                                           ; preds = %if.end, %if.then
  %6 = load ptr, ptr %retval, align 8
  ret ptr %6
}

; Function Attrs: nounwind uwtable
define internal ptr @copy_line(ptr noundef %rest, ptr noundef %tok) #0 {
entry:
  %rest.addr = alloca ptr, align 8
  %tok.addr = alloca ptr, align 8
  %head = alloca %struct.Token, align 16
  %cur = alloca ptr, align 8
  store ptr %rest, ptr %rest.addr, align 8
  store ptr %tok, ptr %tok.addr, align 8
  call void @llvm.memset.p0.i64(ptr align 16 %head, i8 0, i64 128, i1 false)
  store ptr %head, ptr %cur, align 8
  br label %for.cond

for.cond:                                         ; preds = %for.inc, %entry
  %0 = load ptr, ptr %tok.addr, align 8
  %at_bol = getelementptr inbounds %struct.Token, ptr %0, i32 0, i32 12
  %1 = load i8, ptr %at_bol, align 8
  %tobool = trunc i8 %1 to i1
  %lnot = xor i1 %tobool, true
  br i1 %lnot, label %for.body, label %for.end

for.body:                                         ; preds = %for.cond
  %2 = load ptr, ptr %tok.addr, align 8
  %call = call ptr @copy_token(ptr noundef %2)
  %3 = load ptr, ptr %cur, align 8
  %next = getelementptr inbounds %struct.Token, ptr %3, i32 0, i32 1
  store ptr %call, ptr %next, align 8
  store ptr %call, ptr %cur, align 8
  br label %for.inc

for.inc:                                          ; preds = %for.body
  %4 = load ptr, ptr %tok.addr, align 8
  %next1 = getelementptr inbounds %struct.Token, ptr %4, i32 0, i32 1
  %5 = load ptr, ptr %next1, align 8
  store ptr %5, ptr %tok.addr, align 8
  br label %for.cond, !llvm.loop !47

for.end:                                          ; preds = %for.cond
  %6 = load ptr, ptr %tok.addr, align 8
  %call2 = call ptr @new_eof(ptr noundef %6)
  %7 = load ptr, ptr %cur, align 8
  %next3 = getelementptr inbounds %struct.Token, ptr %7, i32 0, i32 1
  store ptr %call2, ptr %next3, align 8
  %8 = load ptr, ptr %tok.addr, align 8
  %9 = load ptr, ptr %rest.addr, align 8
  store ptr %8, ptr %9, align 8
  %next4 = getelementptr inbounds %struct.Token, ptr %head, i32 0, i32 1
  %10 = load ptr, ptr %next4, align 8
  ret ptr %10
}

; Function Attrs: nounwind uwtable
define internal ptr @new_num_token(i32 noundef %val, ptr noundef %tmpl) #0 {
entry:
  %val.addr = alloca i32, align 4
  %tmpl.addr = alloca ptr, align 8
  %buf = alloca ptr, align 8
  store i32 %val, ptr %val.addr, align 4
  store ptr %tmpl, ptr %tmpl.addr, align 8
  %0 = load i32, ptr %val.addr, align 4
  %call = call ptr (ptr, ...) @format(ptr noundef @.str.63, i32 noundef %0)
  store ptr %call, ptr %buf, align 8
  %1 = load ptr, ptr %tmpl.addr, align 8
  %file = getelementptr inbounds %struct.Token, ptr %1, i32 0, i32 8
  %2 = load ptr, ptr %file, align 16
  %name = getelementptr inbounds %struct.File, ptr %2, i32 0, i32 0
  %3 = load ptr, ptr %name, align 8
  %4 = load ptr, ptr %tmpl.addr, align 8
  %file1 = getelementptr inbounds %struct.Token, ptr %4, i32 0, i32 8
  %5 = load ptr, ptr %file1, align 16
  %file_no = getelementptr inbounds %struct.File, ptr %5, i32 0, i32 1
  %6 = load i32, ptr %file_no, align 8
  %7 = load ptr, ptr %buf, align 8
  %call2 = call ptr @new_file(ptr noundef %3, i32 noundef %6, ptr noundef %7)
  %call3 = call ptr @tokenize(ptr noundef %call2)
  ret ptr %call3
}

; Function Attrs: nounwind uwtable
define internal ptr @read_const_expr(ptr noundef %rest, ptr noundef %tok) #0 {
entry:
  %rest.addr = alloca ptr, align 8
  %tok.addr = alloca ptr, align 8
  %head = alloca %struct.Token, align 16
  %cur = alloca ptr, align 8
  %start = alloca ptr, align 8
  %has_paren = alloca i8, align 1
  %m = alloca ptr, align 8
  store ptr %rest, ptr %rest.addr, align 8
  store ptr %tok, ptr %tok.addr, align 8
  %0 = load ptr, ptr %rest.addr, align 8
  %1 = load ptr, ptr %tok.addr, align 8
  %call = call ptr @copy_line(ptr noundef %0, ptr noundef %1)
  store ptr %call, ptr %tok.addr, align 8
  call void @llvm.memset.p0.i64(ptr align 16 %head, i8 0, i64 128, i1 false)
  store ptr %head, ptr %cur, align 8
  br label %while.cond

while.cond:                                       ; preds = %if.end14, %if.end10, %entry
  %2 = load ptr, ptr %tok.addr, align 8
  %kind = getelementptr inbounds %struct.Token, ptr %2, i32 0, i32 0
  %3 = load i32, ptr %kind, align 16
  %cmp = icmp ne i32 %3, 6
  br i1 %cmp, label %while.body, label %while.end

while.body:                                       ; preds = %while.cond
  %4 = load ptr, ptr %tok.addr, align 8
  %call1 = call zeroext i1 @equal(ptr noundef %4, ptr noundef @.str.109)
  br i1 %call1, label %if.then, label %if.end14

if.then:                                          ; preds = %while.body
  %5 = load ptr, ptr %tok.addr, align 8
  store ptr %5, ptr %start, align 8
  %6 = load ptr, ptr %tok.addr, align 8
  %next = getelementptr inbounds %struct.Token, ptr %6, i32 0, i32 1
  %7 = load ptr, ptr %next, align 8
  %call2 = call zeroext i1 @consume(ptr noundef %tok.addr, ptr noundef %7, ptr noundef @.str.86)
  %frombool = zext i1 %call2 to i8
  store i8 %frombool, ptr %has_paren, align 1
  %8 = load ptr, ptr %tok.addr, align 8
  %kind3 = getelementptr inbounds %struct.Token, ptr %8, i32 0, i32 0
  %9 = load i32, ptr %kind3, align 16
  %cmp4 = icmp ne i32 %9, 0
  br i1 %cmp4, label %if.then5, label %if.end

if.then5:                                         ; preds = %if.then
  %10 = load ptr, ptr %start, align 8
  call void (ptr, ptr, ...) @error_tok(ptr noundef %10, ptr noundef @.str.71) #11
  unreachable

if.end:                                           ; preds = %if.then
  %11 = load ptr, ptr %tok.addr, align 8
  %call6 = call ptr @find_macro(ptr noundef %11)
  store ptr %call6, ptr %m, align 8
  %12 = load ptr, ptr %tok.addr, align 8
  %next7 = getelementptr inbounds %struct.Token, ptr %12, i32 0, i32 1
  %13 = load ptr, ptr %next7, align 8
  store ptr %13, ptr %tok.addr, align 8
  %14 = load i8, ptr %has_paren, align 1
  %tobool = trunc i8 %14 to i1
  br i1 %tobool, label %if.then8, label %if.end10

if.then8:                                         ; preds = %if.end
  %15 = load ptr, ptr %tok.addr, align 8
  %call9 = call ptr @skip(ptr noundef %15, ptr noundef @.str.88)
  store ptr %call9, ptr %tok.addr, align 8
  br label %if.end10

if.end10:                                         ; preds = %if.then8, %if.end
  %16 = load ptr, ptr %m, align 8
  %tobool11 = icmp ne ptr %16, null
  %cond = select i1 %tobool11, i32 1, i32 0
  %17 = load ptr, ptr %start, align 8
  %call12 = call ptr @new_num_token(i32 noundef %cond, ptr noundef %17)
  %18 = load ptr, ptr %cur, align 8
  %next13 = getelementptr inbounds %struct.Token, ptr %18, i32 0, i32 1
  store ptr %call12, ptr %next13, align 8
  store ptr %call12, ptr %cur, align 8
  br label %while.cond, !llvm.loop !50

if.end14:                                         ; preds = %while.body
  %19 = load ptr, ptr %tok.addr, align 8
  %20 = load ptr, ptr %cur, align 8
  %next15 = getelementptr inbounds %struct.Token, ptr %20, i32 0, i32 1
  store ptr %19, ptr %next15, align 8
  store ptr %19, ptr %cur, align 8
  %21 = load ptr, ptr %tok.addr, align 8
  %next16 = getelementptr inbounds %struct.Token, ptr %21, i32 0, i32 1
  %22 = load ptr, ptr %next16, align 8
  store ptr %22, ptr %tok.addr, align 8
  br label %while.cond, !llvm.loop !50

while.end:                                        ; preds = %while.cond
  %23 = load ptr, ptr %tok.addr, align 8
  %24 = load ptr, ptr %cur, align 8
  %next17 = getelementptr inbounds %struct.Token, ptr %24, i32 0, i32 1
  store ptr %23, ptr %next17, align 8
  %next18 = getelementptr inbounds %struct.Token, ptr %head, i32 0, i32 1
  %25 = load ptr, ptr %next18, align 8
  ret ptr %25
}

; Function Attrs: nounwind uwtable
define internal i64 @eval_const_expr(ptr noundef %rest, ptr noundef %tok) #0 {
entry:
  %rest.addr = alloca ptr, align 8
  %tok.addr = alloca ptr, align 8
  %start = alloca ptr, align 8
  %expr = alloca ptr, align 8
  %t = alloca ptr, align 8
  %next7 = alloca ptr, align 8
  %rest2 = alloca ptr, align 8
  %val = alloca i64, align 8
  store ptr %rest, ptr %rest.addr, align 8
  store ptr %tok, ptr %tok.addr, align 8
  %0 = load ptr, ptr %tok.addr, align 8
  store ptr %0, ptr %start, align 8
  %1 = load ptr, ptr %rest.addr, align 8
  %2 = load ptr, ptr %tok.addr, align 8
  %next = getelementptr inbounds %struct.Token, ptr %2, i32 0, i32 1
  %3 = load ptr, ptr %next, align 8
  %call = call ptr @read_const_expr(ptr noundef %1, ptr noundef %3)
  store ptr %call, ptr %expr, align 8
  %4 = load ptr, ptr %expr, align 8
  %call1 = call ptr @preprocess2(ptr noundef %4)
  store ptr %call1, ptr %expr, align 8
  %5 = load ptr, ptr %expr, align 8
  %kind = getelementptr inbounds %struct.Token, ptr %5, i32 0, i32 0
  %6 = load i32, ptr %kind, align 16
  %cmp = icmp eq i32 %6, 6
  br i1 %cmp, label %if.then, label %if.end

if.then:                                          ; preds = %entry
  %7 = load ptr, ptr %start, align 8
  call void (ptr, ptr, ...) @error_tok(ptr noundef %7, ptr noundef @.str.108) #11
  unreachable

if.end:                                           ; preds = %entry
  %8 = load ptr, ptr %expr, align 8
  store ptr %8, ptr %t, align 8
  br label %for.cond

for.cond:                                         ; preds = %for.inc, %if.end
  %9 = load ptr, ptr %t, align 8
  %kind2 = getelementptr inbounds %struct.Token, ptr %9, i32 0, i32 0
  %10 = load i32, ptr %kind2, align 16
  %cmp3 = icmp ne i32 %10, 6
  br i1 %cmp3, label %for.body, label %for.end

for.body:                                         ; preds = %for.cond
  %11 = load ptr, ptr %t, align 8
  %kind4 = getelementptr inbounds %struct.Token, ptr %11, i32 0, i32 0
  %12 = load i32, ptr %kind4, align 16
  %cmp5 = icmp eq i32 %12, 0
  br i1 %cmp5, label %if.then6, label %if.end11

if.then6:                                         ; preds = %for.body
  %13 = load ptr, ptr %t, align 8
  %next8 = getelementptr inbounds %struct.Token, ptr %13, i32 0, i32 1
  %14 = load ptr, ptr %next8, align 8
  store ptr %14, ptr %next7, align 8
  %15 = load ptr, ptr %t, align 8
  %16 = load ptr, ptr %t, align 8
  %call9 = call ptr @new_num_token(i32 noundef 0, ptr noundef %16)
  call void @llvm.memcpy.p0.p0.i64(ptr align 16 %15, ptr align 16 %call9, i64 128, i1 false)
  %17 = load ptr, ptr %next7, align 8
  %18 = load ptr, ptr %t, align 8
  %next10 = getelementptr inbounds %struct.Token, ptr %18, i32 0, i32 1
  store ptr %17, ptr %next10, align 8
  br label %if.end11

if.end11:                                         ; preds = %if.then6, %for.body
  br label %for.inc

for.inc:                                          ; preds = %if.end11
  %19 = load ptr, ptr %t, align 8
  %next12 = getelementptr inbounds %struct.Token, ptr %19, i32 0, i32 1
  %20 = load ptr, ptr %next12, align 8
  store ptr %20, ptr %t, align 8
  br label %for.cond, !llvm.loop !29

for.end:                                          ; preds = %for.cond
  %21 = load ptr, ptr %expr, align 8
  call void @convert_pp_tokens(ptr noundef %21)
  %22 = load ptr, ptr %expr, align 8
  %call13 = call i64 @const_expr(ptr noundef %rest2, ptr noundef %22)
  store i64 %call13, ptr %val, align 8
  %23 = load ptr, ptr %rest2, align 8
  %kind14 = getelementptr inbounds %struct.Token, ptr %23, i32 0, i32 0
  %24 = load i32, ptr %kind14, align 16
  %cmp15 = icmp ne i32 %24, 6
  br i1 %cmp15, label %if.then16, label %if.end17

if.then16:                                        ; preds = %for.end
  %25 = load ptr, ptr %rest2, align 8
  call void (ptr, ptr, ...) @error_tok(ptr noundef %25, ptr noundef @.str.107) #11
  unreachable

if.end17:                                         ; preds = %for.end
  %26 = load i64, ptr %val, align 8
  ret i64 %26
}