; Function Attrs: nounwind uwtable
define internal fastcc i64 @eval_const_expr(ptr nocapture noundef writeonly %rest, ptr noundef %tok) unnamed_addr #0 {
entry:
  %head.i.sroa.3.i = alloca ptr, align 8
  %tok.addr.i = alloca ptr, align 8
  %head.i = alloca %struct.Token, align 16
  %rest2 = alloca ptr, align 8
  %next = getelementptr inbounds %struct.Token, ptr %tok, i64 0, i32 1
  %0 = load ptr, ptr %next, align 8
  call void @llvm.lifetime.start.p0(i64 8, ptr nonnull %tok.addr.i)
  call void @llvm.lifetime.start.p0(i64 128, ptr nonnull %head.i)
  call void @llvm.lifetime.start.p0(i64 8, ptr nonnull %head.i.sroa.3.i)
  store ptr null, ptr %head.i.sroa.3.i, align 8
  %at_bol6.i.i = getelementptr inbounds %struct.Token, ptr %0, i64 0, i32 12
  %1 = load i8, ptr %at_bol6.i.i, align 8
  %2 = and i8 %1, 1
  %tobool.not7.i.i = icmp eq i8 %2, 0
  br i1 %tobool.not7.i.i, label %for.body.i.i, label %copy_line.exit.i

for.body.i.i:                                     ; preds = %entry, %for.body.i.i
  %tok.addr.08.i.i = phi ptr [ %3, %for.body.i.i ], [ %0, %entry ]
  %cur.09.sroa.phi.i.i = phi ptr [ %call.i.i.sroa.gep.i, %for.body.i.i ], [ %head.i.sroa.3.i, %entry ]
  %call.i.i.i = tail call noalias noundef dereferenceable_or_null(128) ptr @calloc(i64 noundef 1, i64 noundef 128) #15
  %call.i.i.sroa.gep.i = getelementptr inbounds %struct.Token, ptr %call.i.i.i, i64 0, i32 1
  tail call void @llvm.memcpy.p0.p0.i64(ptr noundef nonnull align 16 dereferenceable(128) %call.i.i.i, ptr noundef nonnull align 16 dereferenceable(128) %tok.addr.08.i.i, i64 128, i1 false)
  store ptr null, ptr %call.i.i.sroa.gep.i, align 8
  store ptr %call.i.i.i, ptr %cur.09.sroa.phi.i.i, align 8
  %next1.i.i = getelementptr inbounds %struct.Token, ptr %tok.addr.08.i.i, i64 0, i32 1
  %3 = load ptr, ptr %next1.i.i, align 8
  %at_bol.i.i = getelementptr inbounds %struct.Token, ptr %3, i64 0, i32 12
  %4 = load i8, ptr %at_bol.i.i, align 8
  %5 = and i8 %4, 1
  %tobool.not.i.i = icmp eq i8 %5, 0
  br i1 %tobool.not.i.i, label %for.body.i.i, label %copy_line.exit.i, !llvm.loop !41

copy_line.exit.i:                                 ; preds = %for.body.i.i, %entry
  %tok.addr.0.lcssa.i.i = phi ptr [ %0, %entry ], [ %3, %for.body.i.i ]
  %cur.0.lcssa.i.sroa.phi.i = phi ptr [ %head.i.sroa.3.i, %entry ], [ %call.i.i.sroa.gep.i, %for.body.i.i ]
  %call.i.i.i.i = tail call noalias noundef dereferenceable_or_null(128) ptr @calloc(i64 noundef 1, i64 noundef 128) #15
  tail call void @llvm.memcpy.p0.p0.i64(ptr noundef nonnull align 16 dereferenceable(128) %call.i.i.i.i, ptr noundef nonnull align 16 dereferenceable(128) %tok.addr.0.lcssa.i.i, i64 128, i1 false)
  %next.i.i.i.i = getelementptr inbounds %struct.Token, ptr %call.i.i.i.i, i64 0, i32 1
  store ptr null, ptr %next.i.i.i.i, align 8
  store i32 6, ptr %call.i.i.i.i, align 16
  %len.i.i.i = getelementptr inbounds %struct.Token, ptr %call.i.i.i.i, i64 0, i32 5
  store i32 0, ptr %len.i.i.i, align 8
  store ptr %call.i.i.i.i, ptr %cur.0.lcssa.i.sroa.phi.i, align 8
  store ptr %tok.addr.0.lcssa.i.i, ptr %rest, align 8
  %head.i.sroa.3.i.0.head.i.sroa.3.i.0.head.i.sroa.3.i.0.head.i.sroa.3.0.head.i.sroa.3.0.head.i.sroa.3.8..i = load ptr, ptr %head.i.sroa.3.i, align 8
  call void @llvm.lifetime.end.p0(i64 8, ptr nonnull %head.i.sroa.3.i)
  store ptr %head.i.sroa.3.i.0.head.i.sroa.3.i.0.head.i.sroa.3.i.0.head.i.sroa.3.0.head.i.sroa.3.0.head.i.sroa.3.8..i, ptr %tok.addr.i, align 8
  call void @llvm.memset.p0.i64(ptr noundef nonnull align 16 dereferenceable(128) %head.i, i8 0, i64 128, i1 false)
  %6 = load i32, ptr %head.i.sroa.3.i.0.head.i.sroa.3.i.0.head.i.sroa.3.i.0.head.i.sroa.3.0.head.i.sroa.3.0.head.i.sroa.3.8..i, align 16
  %cmp.not9.i = icmp eq i32 %6, 6
  br i1 %cmp.not9.i, label %read_const_expr.exit, label %while.body.i

while.body.i:                                     ; preds = %copy_line.exit.i, %while.cond.backedge.i
  %7 = phi ptr [ %19, %while.cond.backedge.i ], [ %head.i.sroa.3.i.0.head.i.sroa.3.i.0.head.i.sroa.3.i.0.head.i.sroa.3.0.head.i.sroa.3.0.head.i.sroa.3.8..i, %copy_line.exit.i ]
  %cur.010.i = phi ptr [ %cur.0.be.i, %while.cond.backedge.i ], [ %head.i, %copy_line.exit.i ]
  %call1.i = call zeroext i1 @equal(ptr noundef nonnull %7, ptr noundef nonnull @.str.109) #14
  %8 = load ptr, ptr %tok.addr.i, align 8
  br i1 %call1.i, label %if.then.i, label %if.end14.i

if.then.i:                                        ; preds = %while.body.i
  %next.i = getelementptr inbounds %struct.Token, ptr %8, i64 0, i32 1
  %9 = load ptr, ptr %next.i, align 8
  %call2.i = call zeroext i1 @consume(ptr noundef nonnull %tok.addr.i, ptr noundef %9, ptr noundef nonnull @.str.86) #14
  %10 = load ptr, ptr %tok.addr.i, align 8
  %11 = load i32, ptr %10, align 16
  %cmp4.not.i = icmp eq i32 %11, 0
  br i1 %cmp4.not.i, label %find_macro.exit.i, label %if.then5.i

if.then5.i:                                       ; preds = %if.then.i
  call void (ptr, ptr, ...) @error_tok(ptr noundef nonnull %8, ptr noundef nonnull @.str.71) #16
  unreachable

find_macro.exit.i:                                ; preds = %if.then.i
  %loc.i.i = getelementptr inbounds %struct.Token, ptr %10, i64 0, i32 4
  %12 = load ptr, ptr %loc.i.i, align 16
  %len.i.i = getelementptr inbounds %struct.Token, ptr %10, i64 0, i32 5
  %13 = load i32, ptr %len.i.i, align 8
  %call.i.i = call ptr @hashmap_get2(ptr noundef nonnull @macros, ptr noundef %12, i32 noundef %13) #14
  %14 = load ptr, ptr %tok.addr.i, align 8
  %next7.i = getelementptr inbounds %struct.Token, ptr %14, i64 0, i32 1
  %15 = load ptr, ptr %next7.i, align 8
  store ptr %15, ptr %tok.addr.i, align 8
  br i1 %call2.i, label %if.then8.i, label %if.end10.i

if.then8.i:                                       ; preds = %find_macro.exit.i
  %call9.i = call ptr @skip(ptr noundef %15, ptr noundef nonnull @.str.88) #14
  store ptr %call9.i, ptr %tok.addr.i, align 8
  br label %if.end10.i

if.end10.i:                                       ; preds = %if.then8.i, %find_macro.exit.i
  %tobool11.not.i = icmp ne ptr %call.i.i, null
  %cond.i = zext i1 %tobool11.not.i to i32
  %call.i4.i = call ptr (ptr, ...) @format(ptr noundef nonnull @.str.63, i32 noundef %cond.i) #14
  %file.i.i = getelementptr inbounds %struct.Token, ptr %8, i64 0, i32 8
  %16 = load ptr, ptr %file.i.i, align 16
  %17 = load ptr, ptr %16, align 8
  %file_no.i.i = getelementptr inbounds %struct.File, ptr %16, i64 0, i32 1
  %18 = load i32, ptr %file_no.i.i, align 8
  %call2.i.i = call ptr @new_file(ptr noundef %17, i32 noundef %18, ptr noundef %call.i4.i) #14
  %call3.i.i = call ptr @tokenize(ptr noundef %call2.i.i) #14
  %next13.i = getelementptr inbounds %struct.Token, ptr %cur.010.i, i64 0, i32 1
  store ptr %call3.i.i, ptr %next13.i, align 8
  %.pre.i = load ptr, ptr %tok.addr.i, align 8
  br label %while.cond.backedge.i

while.cond.backedge.i:                            ; preds = %if.end14.i, %if.end10.i
  %19 = phi ptr [ %.pre.i, %if.end10.i ], [ %21, %if.end14.i ]
  %cur.0.be.i = phi ptr [ %call3.i.i, %if.end10.i ], [ %8, %if.end14.i ]
  %20 = load i32, ptr %19, align 16
  %cmp.not.i = icmp eq i32 %20, 6
  br i1 %cmp.not.i, label %read_const_expr.exit, label %while.body.i, !llvm.loop !46

if.end14.i:                                       ; preds = %while.body.i
  %next15.i = getelementptr inbounds %struct.Token, ptr %cur.010.i, i64 0, i32 1
  store ptr %8, ptr %next15.i, align 8
  %next16.i = getelementptr inbounds %struct.Token, ptr %8, i64 0, i32 1
  %21 = load ptr, ptr %next16.i, align 8
  store ptr %21, ptr %tok.addr.i, align 8
  br label %while.cond.backedge.i

read_const_expr.exit:                             ; preds = %while.cond.backedge.i, %copy_line.exit.i
  %cur.0.lcssa.i = phi ptr [ %head.i, %copy_line.exit.i ], [ %cur.0.be.i, %while.cond.backedge.i ]
  %.lcssa.i = phi ptr [ %head.i.sroa.3.i.0.head.i.sroa.3.i.0.head.i.sroa.3.i.0.head.i.sroa.3.0.head.i.sroa.3.0.head.i.sroa.3.8..i, %copy_line.exit.i ], [ %19, %while.cond.backedge.i ]
  %next17.i = getelementptr inbounds %struct.Token, ptr %cur.0.lcssa.i, i64 0, i32 1
  store ptr %.lcssa.i, ptr %next17.i, align 8
  %next18.i = getelementptr inbounds %struct.Token, ptr %head.i, i64 0, i32 1
  %22 = load ptr, ptr %next18.i, align 8
  call void @llvm.lifetime.end.p0(i64 8, ptr nonnull %tok.addr.i)
  call void @llvm.lifetime.end.p0(i64 128, ptr nonnull %head.i)
  %call1 = call fastcc ptr @preprocess2(ptr noundef %22)
  %23 = load i32, ptr %call1, align 16
  %cmp = icmp eq i32 %23, 6
  br i1 %cmp, label %if.then, label %for.cond

if.then:                                          ; preds = %read_const_expr.exit
  call void (ptr, ptr, ...) @error_tok(ptr noundef %tok, ptr noundef nonnull @.str.108) #16
  unreachable

for.cond:                                         ; preds = %read_const_expr.exit, %for.inc
  %24 = phi i32 [ %.pr, %for.inc ], [ %23, %read_const_expr.exit ]
  %t.0 = phi ptr [ %29, %for.inc ], [ %call1, %read_const_expr.exit ]
  switch i32 %24, label %for.cond.for.inc_crit_edge [
    i32 6, label %for.end
    i32 0, label %if.then6
  ]

for.cond.for.inc_crit_edge:                       ; preds = %for.cond
  %next12.phi.trans.insert = getelementptr inbounds %struct.Token, ptr %t.0, i64 0, i32 1
  %.pre = load ptr, ptr %next12.phi.trans.insert, align 8
  br label %for.inc

if.then6:                                         ; preds = %for.cond
  %next8 = getelementptr inbounds %struct.Token, ptr %t.0, i64 0, i32 1
  %25 = load ptr, ptr %next8, align 8
  %call.i = call ptr (ptr, ...) @format(ptr noundef nonnull @.str.63, i32 noundef 0) #14
  %file.i = getelementptr inbounds %struct.Token, ptr %t.0, i64 0, i32 8
  %26 = load ptr, ptr %file.i, align 16
  %27 = load ptr, ptr %26, align 8
  %file_no.i = getelementptr inbounds %struct.File, ptr %26, i64 0, i32 1
  %28 = load i32, ptr %file_no.i, align 8
  %call2.i12 = call ptr @new_file(ptr noundef %27, i32 noundef %28, ptr noundef %call.i) #14
  %call3.i = call ptr @tokenize(ptr noundef %call2.i12) #14
  call void @llvm.memcpy.p0.p0.i64(ptr noundef nonnull align 16 dereferenceable(128) %t.0, ptr noundef nonnull align 16 dereferenceable(128) %call3.i, i64 128, i1 false)
  store ptr %25, ptr %next8, align 8
  br label %for.inc

for.inc:                                          ; preds = %for.cond.for.inc_crit_edge, %if.then6
  %29 = phi ptr [ %.pre, %for.cond.for.inc_crit_edge ], [ %25, %if.then6 ]
  %.pr = load i32, ptr %29, align 16
  br label %for.cond, !llvm.loop !47

for.end:                                          ; preds = %for.cond
  call void @convert_pp_tokens(ptr noundef nonnull %call1) #14
  %call13 = call i64 @const_expr(ptr noundef nonnull %rest2, ptr noundef nonnull %call1) #14
  %30 = load ptr, ptr %rest2, align 8
  %31 = load i32, ptr %30, align 16
  %cmp15.not = icmp eq i32 %31, 6
  br i1 %cmp15.not, label %if.end17, label %if.then16

if.then16:                                        ; preds = %for.end
  call void (ptr, ptr, ...) @error_tok(ptr noundef nonnull %30, ptr noundef nonnull @.str.107) #16
  unreachable

if.end17:                                         ; preds = %for.end
  ret i64 %call13
}